Certificate:
    Data:
        Version: 3 (0x2)
        Serial Number: 1 (0x1)
    Signature Algorithm: sha256WithRSAEncryption
        Issuer: C=US, ST=California, L=San Francisco, O=Mesosphere, CN=DCOS Test CA
        Validity
            Not Before: Jun 23 05:31:22 2016 GMT
            Not After : Nov  9 05:31:22 2043 GMT
        Subject: C=US, ST=California, L=San Francisco, O=Mesosphere, CN=registry.marathon.mesos.thisdcos.directory
        Subject Public Key Info:
            Public Key Algorithm: rsaEncryption
                Public-Key: (2048 bit)
                Modulus:
                    00:93:69:96:98:bd:1c:4c:0d:c1:f1:05:dd:cf:fd:
                    b5:c2:17:2b:8d:48:bd:c2:e5:0b:55:12:f8:b6:e4:
                    d9:f4:48:b1:84:89:48:41:01:f7:72:dd:d3:53:0a:
                    26:16:a8:03:f1:99:d8:31:e8:39:3c:c8:86:27:3c:
                    99:be:7b:dc:0d:23:16:7a:5f:7b:dd:08:e7:92:46:
                    3c:a0:dc:0d:f3:3a:b8:c2:9f:70:4e:76:91:6b:af:
                    0f:42:54:ba:79:31:09:59:9b:a0:47:b3:ae:7d:2b:
                    03:0f:86:49:6d:77:3e:50:bd:3e:85:9f:45:9c:07:
                    7f:5b:ae:28:ab:bf:3a:c6:ee:92:96:75:9c:68:4b:
                    35:20:eb:fc:54:8d:32:bf:3e:f8:3b:29:a5:6f:74:
                    d3:b8:3d:aa:e3:40:c6:97:a5:86:0f:47:8c:27:54:
                    fc:38:2d:a4:93:1c:cb:f5:9c:38:c3:d3:22:84:56:
                    79:09:7d:cd:bc:64:c5:2a:f7:7b:01:d7:ac:eb:d3:
                    f7:19:2a:1a:f4:c7:83:3f:e0:3d:ec:94:57:16:be:
                    8f:9f:da:48:60:28:c9:a8:dc:3d:3d:16:96:f8:d7:
                    6d:84:81:19:be:9c:e4:9e:3a:10:cd:98:e1:23:13:
                    c0:49:90:71:e7:ca:7b:64:c5:a0:77:24:d7:1d:8c:
                    0d:f5
                Exponent: 65537 (0x10001)
        X509v3 extensions:
            X509v3 Subject Key Identifier: 
                D6:8E:33:72:E2:FC:C5:65:4A:92:84:0A:E8:9D:0C:D7:A6:14:B7:95
            X509v3 Authority Key Identifier: 
                keyid:5D:FC:0A:B8:42:C7:D9:16:79:1A:5C:0A:38:F4:91:A4:E8:C4:9A:6E

            X509v3 Basic Constraints: 
                CA:FALSE
            X509v3 Key Usage: 
                Digital Signature, Key Encipherment
            X509v3 Subject Alternative Name: 
                DNS:registry.marathon.mesos.thisdcos.directory, IP Address:172.17.0.2
            Netscape Comment: 
                OpenSSL Generated Certificate
    Signature Algorithm: sha256WithRSAEncryption
         67:36:d5:1f:98:12:bc:6d:de:35:d6:5e:68:79:e2:cd:fd:b3:
         c1:8b:49:80:34:b6:5b:78:58:d7:a6:01:df:b5:ca:cd:d7:78:
         3f:e1:32:d5:6b:6c:ee:37:7b:76:67:0c:1e:4b:fa:2e:a6:d8:
         12:d8:7e:92:8d:d0:9b:20:bb:72:43:2f:39:ae:1f:b3:a1:48:
         38:38:e1:26:82:8f:a1:ea:e8:ad:7c:3d:91:2f:d8:fa:ef:ae:
         ca:74:9e:7f:33:db:b3:f2:c7:44:49:16:54:f3:fc:18:cd:29:
         bd:72:10:2f:c6:bf:77:c5:fa:a3:b3:b8:ce:25:8d:05:0a:17:
         6a:e4:b6:4a:ed:12:a6:79:87:e9:6f:d8:1a:f8:20:da:48:05:
         78:ab:3d:a6:c2:8d:c7:c3:9a:fa:a9:0b:d3:c1:b3:fa:2c:00:
         1e:ad:74:79:f7:3f:ab:22:3a:74:63:11:db:26:51:a3:63:c5:
         e4:e5:09:48:09:9f:ca:f8:d4:fb:ed:24:e4:4c:93:91:ab:a4:
         8f:6e:fb:ad:94:a6:1f:b0:16:4f:b8:4f:a4:44:0a:ee:bd:cf:
         26:32:59:75:69:09:a1:8e:45:b8:b2:06:bc:14:30:19:a7:30:
         d7:56:4b:f8:02:24:19:d0:ae:7c:3c:2d:d7:13:88:ce:b9:af:
         2a:1e:87:af:30:f8:d0:ca:a7:aa:71:2e:00:c0:0a:67:2b:61:
         ee:f0:8d:a8:77:7c:1f:1f:db:34:60:e9:36:83:2f:d0:9a:7b:
         33:3a:0c:cb:e0:e2:9e:b1:a5:da:e3:e7:98:3c:f3:9e:29:a2:
         69:5a:a9:d3:0f:07:92:50:d1:15:4f:a6:55:f8:1d:c8:1d:f8:
         de:c2:e7:0f:80:d6:bf:8e:0d:43:05:07:34:d3:7a:69:9a:57:
         9a:b7:87:89:a2:53:2e:9f:17:79:c3:6e:72:84:8a:a9:9e:d0:
         46:e4:56:33:77:5f:ce:7e:88:21:dd:aa:bc:d5:66:24:4c:0f:
         db:9e:32:f5:f8:8c:71:e9:cb:b8:05:f2:d9:cc:9f:a9:de:c2:
         49:da:6b:9c:c6:13:46:db:59:9c:79:b0:ff:e4:ba:2a:8f:75:
         7a:f3:19:80:7e:50:2f:d0:f7:7e:19:ba:37:5e:3c:83:d4:bf:
         b0:e8:ac:1a:7a:cd:48:60:57:c6:b5:ba:e9:1e:10:fc:46:ad:
         f6:d5:0d:56:19:ca:0a:72:39:ee:64:3f:9c:6f:be:92:34:63:
         1e:c8:a3:e0:47:81:20:09:fb:1e:f2:fc:13:3a:87:4a:aa:d9:
         41:00:d5:d1:2c:a4:e7:f8:c7:32:cb:2a:a8:6a:f3:92:93:af:
         75:07:10:7d:3f:75:cc:05
-----BEGIN CERTIFICATE-----
MIIFLTCCAxWgAwIBAgIBATANBgkqhkiG9w0BAQsFADBmMQswCQYDVQQGEwJVUzET
MBEGA1UECAwKQ2FsaWZvcm5pYTEWMBQGA1UEBwwNU2FuIEZyYW5jaXNjbzETMBEG
A1UECgwKTWVzb3NwaGVyZTEVMBMGA1UEAwwMRENPUyBUZXN0IENBMB4XDTE2MDYy
MzA1MzEyMloXDTQzMTEwOTA1MzEyMlowgYQxCzAJBgNVBAYTAlVTMRMwEQYDVQQI
DApDYWxpZm9ybmlhMRYwFAYDVQQHDA1TYW4gRnJhbmNpc2NvMRMwEQYDVQQKDApN
ZXNvc3BoZXJlMTMwMQYDVQQDDCpyZWdpc3RyeS5tYXJhdGhvbi5tZXNvcy50aGlz
ZGNvcy5kaXJlY3RvcnkwggEiMA0GCSqGSIb3DQEBAQUAA4IBDwAwggEKAoIBAQCT
aZaYvRxMDcHxBd3P/bXCFyuNSL3C5QtVEvi25Nn0SLGEiUhBAfdy3dNTCiYWqAPx
mdgx6Dk8yIYnPJm+e9wNIxZ6X3vdCOeSRjyg3A3zOrjCn3BOdpFrrw9CVLp5MQlZ
m6BHs659KwMPhkltdz5QvT6Fn0WcB39briirvzrG7pKWdZxoSzUg6/xUjTK/Pvg7
KaVvdNO4ParjQMaXpYYPR4wnVPw4LaSTHMv1nDjD0yKEVnkJfc28ZMUq93sB16zr
0/cZKhr0x4M/4D3slFcWvo+f2khgKMmo3D09Fpb4122EgRm+nOSeOhDNmOEjE8BJ
kHHnyntkxaB3JNcdjA31AgMBAAGjgcYwgcMwHQYDVR0OBBYEFNaOM3Li/MVlSpKE
CuidDNemFLeVMB8GA1UdIwQYMBaAFF38CrhCx9kWeRpcCjj0kaToxJpuMAkGA1Ud
EwQCMAAwCwYDVR0PBAQDAgWgMDsGA1UdEQQ0MDKCKnJlZ2lzdHJ5Lm1hcmF0aG9u
Lm1lc29zLnRoaXNkY29zLmRpcmVjdG9yeYcErBEAAjAsBglghkgBhvhCAQ0EHxYd
T3BlblNTTCBHZW5lcmF0ZWQgQ2VydGlmaWNhdGUwDQYJKoZIhvcNAQELBQADggIB
AGc21R+YErxt3jXWXmh54s39s8GLSYA0tlt4WNemAd+1ys3XeD/hMtVrbO43e3Zn
DB5L+i6m2BLYfpKN0Jsgu3JDLzmuH7OhSDg44SaCj6Hq6K18PZEv2Prvrsp0nn8z
27Pyx0RJFlTz/BjNKb1yEC/Gv3fF+qOzuM4ljQUKF2rktkrtEqZ5h+lv2Br4INpI
BXirPabCjcfDmvqpC9PBs/osAB6tdHn3P6siOnRjEdsmUaNjxeTlCUgJn8r41Pvt
JORMk5GrpI9u+62Uph+wFk+4T6RECu69zyYyWXVpCaGORbiyBrwUMBmnMNdWS/gC
JBnQrnw8LdcTiM65ryoeh68w+NDKp6pxLgDACmcrYe7wjah3fB8f2zRg6TaDL9Ca
ezM6DMvg4p6xpdrj55g8854pomlaqdMPB5JQ0RVPplX4Hcgd+N7C5w+A1r+ODUMF
BzTTemmaV5q3h4miUy6fF3nDbnKEiqme0EbkVjN3X85+iCHdqrzVZiRMD9ueMvX4
jHHpy7gF8tnMn6newknaa5zGE0bbWZx5sP/kuiqPdXrzGYB+UC/Q934ZujdePIPU
v7DorBp6zUhgV8a1uukeEPxGrfbVDVYZygpyOe5kP5xvvpI0Yx7Io+BHgSAJ+x7y
/BM6h0qq2UEA1dEspOf4xzLLKqhq85KTr3UHEH0/dcwF
-----END CERTIFICATE-----
