Certificate:
    Data:
        Version: 3 (0x2)
        Serial Number: 1 (0x1)
    Signature Algorithm: sha256WithRSAEncryption
        Issuer: C=US, ST=California, L=San Francisco, O=Mesosphere, CN=DCOS Test CA
        Validity
            Not Before: Jul  6 18:49:59 2016 GMT
            Not After : Nov 22 18:49:59 2043 GMT
        Subject: C=US, ST=California, L=San Francisco, O=Mesosphere, CN=123.1.1.1
        Subject Public Key Info:
            Public Key Algorithm: rsaEncryption
                Public-Key: (2048 bit)
                Modulus:
                    00:a3:e1:4e:b1:fb:c5:f6:0f:bc:5b:dc:c1:f7:62:
                    7e:a9:a9:4c:23:41:e8:af:82:60:bc:a3:b3:af:a9:
                    77:c3:1c:90:cc:b6:d5:ea:6f:7b:25:41:ef:db:a9:
                    85:fc:fc:4b:4c:da:0b:83:6b:89:97:6d:6c:ea:48:
                    f8:0e:69:f4:12:44:9d:d2:67:23:d1:c8:a5:1e:98:
                    4f:ad:0a:37:e4:89:b7:43:05:e3:ba:55:4c:c5:66:
                    3a:d2:43:de:60:75:1d:1b:e7:80:65:49:80:33:7a:
                    49:bb:78:a0:19:80:5b:4d:f0:64:ea:3e:2c:fd:58:
                    93:80:c9:7f:94:40:05:d3:b9:8d:54:ee:31:17:b8:
                    0d:cc:55:fe:a2:ef:e8:78:63:91:58:ce:d1:fd:79:
                    74:cc:fe:03:f4:be:25:bf:56:33:d0:bb:cb:ec:6a:
                    04:98:62:83:bc:67:55:5e:83:e2:73:a6:ac:37:31:
                    4d:be:3a:00:75:10:3d:13:31:47:f1:f9:d5:81:ad:
                    4d:f1:be:94:51:63:64:98:2c:00:e8:04:5c:65:d0:
                    3b:d5:d3:cf:5e:bd:92:d5:be:b5:38:03:04:c6:cd:
                    15:31:ab:45:95:4d:81:73:ed:91:f8:a3:4a:1a:5e:
                    18:43:59:e9:5d:b1:f9:89:20:0c:a9:f4:dd:64:83:
                    96:a9
                Exponent: 65537 (0x10001)
        X509v3 extensions:
            X509v3 Subject Key Identifier: 
                4D:8A:0B:FB:2D:73:AE:FA:40:91:30:0E:BC:28:AF:2F:98:C6:AA:09
            X509v3 Authority Key Identifier: 
                keyid:89:7A:0B:C0:17:BD:0D:97:71:CA:A9:DE:32:4A:CB:83:D8:8A:26:EF

            X509v3 Basic Constraints: 
                CA:FALSE
            X509v3 Key Usage: 
                Digital Signature, Key Encipherment
            X509v3 Subject Alternative Name: 
                DNS:registry.marathon.mesos.thisdcos.directory, IP Address:123.1.1.1
            Netscape Comment: 
                OpenSSL Generated Certificate
    Signature Algorithm: sha256WithRSAEncryption
         2e:95:7a:e9:20:fc:c7:dc:d9:33:8d:cb:b3:88:dd:28:6d:79:
         02:33:1c:c9:55:3a:41:3e:62:ef:5c:4c:d0:01:82:10:a5:3f:
         10:a7:42:bf:a9:b9:30:29:12:1d:6b:d0:72:30:94:52:78:fe:
         50:34:7f:4c:f0:12:59:b1:28:a9:0b:46:df:ce:84:f4:85:49:
         32:c2:17:8f:98:57:ab:b4:27:ff:bb:fe:37:34:1f:1e:06:46:
         76:0d:93:15:cd:d4:b7:4d:df:c5:23:59:ad:7a:31:2c:e2:40:
         f9:fd:99:f7:3a:6a:f8:b7:75:ee:83:51:67:33:a6:a3:a6:9d:
         e3:38:fb:84:0e:e7:84:ad:00:60:7f:aa:65:93:c5:d0:f3:13:
         45:b1:ac:4a:07:ee:7b:17:af:45:0f:63:e5:11:ab:7e:1b:99:
         56:52:4a:79:fb:e6:62:8a:bb:68:26:05:73:f8:6c:77:ab:c4:
         d4:97:b2:84:97:1c:b5:7a:d3:23:2b:1e:91:bb:30:60:64:26:
         9b:bd:11:51:a4:c5:03:99:39:3b:18:74:6b:c0:27:b1:02:7e:
         31:53:ae:da:d3:5e:51:77:9c:01:08:73:00:d8:19:23:c6:8a:
         80:d7:bb:26:76:c0:01:9e:5d:92:fd:f6:2e:53:4b:07:fc:b9:
         e9:c4:d7:05:41:37:4e:24:cc:69:79:6e:6c:73:71:29:98:6a:
         9c:60:16:c1:22:f8:8b:ad:18:c3:b6:ab:0e:c3:09:3c:30:29:
         43:59:a3:47:13:df:3e:61:44:03:dd:56:18:c0:81:6a:4b:29:
         99:a0:28:59:ce:64:34:0e:f7:f7:a6:0d:b2:b8:2f:44:5e:a2:
         d4:e9:0c:13:a0:21:2b:2a:6c:8a:cb:27:42:db:9e:7f:32:ed:
         9f:61:d8:73:74:a3:95:df:c0:2e:57:9a:e6:a5:6e:77:3d:af:
         26:5d:51:53:09:65:e4:d8:d6:47:38:95:f1:b7:c2:d2:a7:09:
         b4:a9:af:25:8f:3b:e3:2b:ee:3b:71:a2:7e:47:65:e6:bb:bb:
         41:53:7c:48:0d:f5:3c:11:40:1a:0d:06:8a:ba:fc:47:f2:16:
         dd:a1:a9:e7:61:2c:61:90:75:45:6d:c4:fa:ed:bc:82:55:42:
         64:cd:be:f6:c4:98:14:31:a3:18:2c:c2:63:35:a9:e0:c6:ea:
         61:49:54:e6:e1:65:b8:c8:e9:ba:fb:5d:23:bf:bf:87:8a:c7:
         75:72:7c:ac:4a:92:2e:d8:5a:c4:13:90:30:f0:2d:54:d8:15:
         39:5b:53:ef:4a:84:c8:a3:fe:66:81:bd:d9:ae:84:ac:e7:40:
         66:53:5f:ca:ff:2a:b8:4a
-----BEGIN CERTIFICATE-----
MIIFCzCCAvOgAwIBAgIBATANBgkqhkiG9w0BAQsFADBmMQswCQYDVQQGEwJVUzET
MBEGA1UECAwKQ2FsaWZvcm5pYTEWMBQGA1UEBwwNU2FuIEZyYW5jaXNjbzETMBEG
A1UECgwKTWVzb3NwaGVyZTEVMBMGA1UEAwwMRENPUyBUZXN0IENBMB4XDTE2MDcw
NjE4NDk1OVoXDTQzMTEyMjE4NDk1OVowYzELMAkGA1UEBhMCVVMxEzARBgNVBAgM
CkNhbGlmb3JuaWExFjAUBgNVBAcMDVNhbiBGcmFuY2lzY28xEzARBgNVBAoMCk1l
c29zcGhlcmUxEjAQBgNVBAMMCTEyMy4xLjEuMTCCASIwDQYJKoZIhvcNAQEBBQAD
ggEPADCCAQoCggEBAKPhTrH7xfYPvFvcwfdifqmpTCNB6K+CYLyjs6+pd8MckMy2
1epveyVB79uphfz8S0zaC4NriZdtbOpI+A5p9BJEndJnI9HIpR6YT60KN+SJt0MF
47pVTMVmOtJD3mB1HRvngGVJgDN6Sbt4oBmAW03wZOo+LP1Yk4DJf5RABdO5jVTu
MRe4DcxV/qLv6HhjkVjO0f15dMz+A/S+Jb9WM9C7y+xqBJhig7xnVV6D4nOmrDcx
Tb46AHUQPRMxR/H51YGtTfG+lFFjZJgsAOgEXGXQO9XTz169ktW+tTgDBMbNFTGr
RZVNgXPtkfijShpeGENZ6V2x+YkgDKn03WSDlqkCAwEAAaOBxjCBwzAdBgNVHQ4E
FgQUTYoL+y1zrvpAkTAOvCivL5jGqgkwHwYDVR0jBBgwFoAUiXoLwBe9DZdxyqne
MkrLg9iKJu8wCQYDVR0TBAIwADALBgNVHQ8EBAMCBaAwOwYDVR0RBDQwMoIqcmVn
aXN0cnkubWFyYXRob24ubWVzb3MudGhpc2Rjb3MuZGlyZWN0b3J5hwR7AQEBMCwG
CWCGSAGG+EIBDQQfFh1PcGVuU1NMIEdlbmVyYXRlZCBDZXJ0aWZpY2F0ZTANBgkq
hkiG9w0BAQsFAAOCAgEALpV66SD8x9zZM43Ls4jdKG15AjMcyVU6QT5i71xM0AGC
EKU/EKdCv6m5MCkSHWvQcjCUUnj+UDR/TPASWbEoqQtG386E9IVJMsIXj5hXq7Qn
/7v+NzQfHgZGdg2TFc3Ut03fxSNZrXoxLOJA+f2Z9zpq+Ld17oNRZzOmo6ad4zj7
hA7nhK0AYH+qZZPF0PMTRbGsSgfuexevRQ9j5RGrfhuZVlJKefvmYoq7aCYFc/hs
d6vE1JeyhJcctXrTIysekbswYGQmm70RUaTFA5k5Oxh0a8AnsQJ+MVOu2tNeUXec
AQhzANgZI8aKgNe7JnbAAZ5dkv32LlNLB/y56cTXBUE3TiTMaXlubHNxKZhqnGAW
wSL4i60Yw7arDsMJPDApQ1mjRxPfPmFEA91WGMCBakspmaAoWc5kNA7396YNsrgv
RF6i1OkME6AhKypsissnQtuefzLtn2HYc3Sjld/ALlea5qVudz2vJl1RUwll5NjW
RziV8bfC0qcJtKmvJY874yvuO3Gifkdl5ru7QVN8SA31PBFAGg0Girr8R/IW3aGp
52EsYZB1RW3E+u28glVCZM2+9sSYFDGjGCzCYzWp4MbqYUlU5uFluMjpuvtdI7+/
h4rHdXJ8rEqSLthaxBOQMPAtVNgVOVtT70qEyKP+ZoG92a6ErOdAZlNfyv8quEo=
-----END CERTIFICATE-----
